target datalayout = "e-m:e-p270:32:32-p271:32:32-p272:64:64-i64:64-i128:128-f80:128-n8:16:32:64-S128"
target triple = "x86_64-pc-linux-gnu"

%"struct.gmx::EnumerationArray" = type { [4 x ptr] }
%struct.t_vcm = type <{ i32, i32, i32, i32, i32, float, %"class.std::vector", %"class.std::vector", %"class.std::vector.0", %"class.std::vector.0", %"class.std::vector.0", %"class.std::vector.0", %"class.std::vector.0", ptr, %"class.std::vector.5", ptr, %"class.std::vector.10", i8, [7 x i8] }>
%"class.std::vector" = type { %"struct.std::_Vector_base" }
%"struct.std::_Vector_base" = type { %"struct.std::_Vector_base<float, std::allocator<float>>::_Vector_impl" }
%"struct.std::_Vector_base<float, std::allocator<float>>::_Vector_impl" = type { %"struct.std::_Vector_base<float, std::allocator<float>>::_Vector_impl_data" }
%"struct.std::_Vector_base<float, std::allocator<float>>::_Vector_impl_data" = type { ptr, ptr, ptr }
%"class.std::vector.0" = type { %"struct.std::_Vector_base.1" }
%"struct.std::_Vector_base.1" = type { %"struct.std::_Vector_base<gmx::BasicVector<float>, std::allocator<gmx::BasicVector<float>>>::_Vector_impl" }
%"struct.std::_Vector_base<gmx::BasicVector<float>, std::allocator<gmx::BasicVector<float>>>::_Vector_impl" = type { %"struct.std::_Vector_base<gmx::BasicVector<float>, std::allocator<gmx::BasicVector<float>>>::_Vector_impl_data" }
%"struct.std::_Vector_base<gmx::BasicVector<float>, std::allocator<gmx::BasicVector<float>>>::_Vector_impl_data" = type { ptr, ptr, ptr }
%"class.std::vector.5" = type { %"struct.std::_Vector_base.6" }
%"struct.std::_Vector_base.6" = type { %"struct.std::_Vector_base<char *, std::allocator<char *>>::_Vector_impl" }
%"struct.std::_Vector_base<char *, std::allocator<char *>>::_Vector_impl" = type { %"struct.std::_Vector_base<char *, std::allocator<char *>>::_Vector_impl_data" }
%"struct.std::_Vector_base<char *, std::allocator<char *>>::_Vector_impl_data" = type { ptr, ptr, ptr }
%"class.std::vector.10" = type { %"struct.std::_Vector_base.11" }
%"struct.std::_Vector_base.11" = type { %"struct.std::_Vector_base<t_vcm_thread, std::allocator<t_vcm_thread>>::_Vector_impl" }
%"struct.std::_Vector_base<t_vcm_thread, std::allocator<t_vcm_thread>>::_Vector_impl" = type { %"struct.std::_Vector_base<t_vcm_thread, std::allocator<t_vcm_thread>>::_Vector_impl_data" }
%"struct.std::_Vector_base<t_vcm_thread, std::allocator<t_vcm_thread>>::_Vector_impl_data" = type { ptr, ptr, ptr }

@_ZZ17enumValueToString19ComRemovalAlgorithmE24comRemovalAlgorithmNames = internal constant %"struct.gmx::EnumerationArray" { [4 x ptr] [ptr @.str, ptr @.str.1, ptr @.str.2, ptr @.str.3] }, align 8
@.str.10 = private unnamed_addr constant [42 x i8] c"Center of mass motion removal mode is %s\0A\00", align 1
@.str.11 = private unnamed_addr constant [65 x i8] c"We have the following groups for center of mass motion removal:\0A\00", align 1
@.str.12 = private unnamed_addr constant [10 x i8] c"%3d:  %s\0A\00", align 1

; Function Attrs: mustprogress nounwind uwtable
define linkonce_odr noundef nonnull align 8 dereferenceable(8) ptr @_ZNK3gmx16EnumerationArrayI19ComRemovalAlgorithmPKcLS1_4EEixES1_(ptr noundef nonnull align 8 dereferenceable(32) %0, i32 noundef %1) #1 comdat align 2 {
  %3 = alloca ptr, align 8
  %4 = alloca i32, align 4
  store ptr %0, ptr %3, align 8, !tbaa !11
  store i32 %1, ptr %4, align 4, !tbaa !4
  %5 = load ptr, ptr %3, align 8
  %6 = getelementptr inbounds nuw %"struct.gmx::EnumerationArray", ptr %5, i32 0, i32 0
  %7 = load i32, ptr %4, align 4, !tbaa !4
  %8 = sext i32 %7 to i64
  %9 = getelementptr inbounds nuw [4 x ptr], ptr %6, i64 0, i64 %8
  ret ptr %9
}

; Function Attrs: mustprogress nounwind uwtable
define linkonce_odr noundef nonnull align 8 dereferenceable(8) ptr @_ZNKSt6vectorIPcSaIS0_EEixEm(ptr noundef nonnull align 8 dereferenceable(24) %0, i64 noundef %1) #1 comdat align 2 {
  %3 = alloca ptr, align 8
  %4 = alloca i64, align 8
  store ptr %0, ptr %3, align 8, !tbaa !152
  store i64 %1, ptr %4, align 8, !tbaa !175
  %5 = load ptr, ptr %3, align 8
  %6 = getelementptr inbounds nuw %"struct.std::_Vector_base.6", ptr %5, i32 0, i32 0
  %7 = getelementptr inbounds nuw %"struct.std::_Vector_base<char *, std::allocator<char *>>::_Vector_impl_data", ptr %6, i32 0, i32 0
  %8 = load ptr, ptr %7, align 8, !tbaa !181
  %9 = load i64, ptr %4, align 8, !tbaa !175
  %10 = getelementptr inbounds nuw ptr, ptr %8, i64 %9
  ret ptr %10
}

; Function Attrs: mustprogress uwtable
define noundef ptr @_Z17enumValueToString19ComRemovalAlgorithm(i32 noundef %0) #0 {
  %2 = alloca i32, align 4
  store i32 %0, ptr %2, align 4, !tbaa !4
  %3 = load i32, ptr %2, align 4, !tbaa !4
  %4 = call noundef nonnull align 8 dereferenceable(8) ptr @_ZNK3gmx16EnumerationArrayI19ComRemovalAlgorithmPKcLS1_4EEixES1_(ptr noundef nonnull align 8 dereferenceable(32) @_ZZ17enumValueToString19ComRemovalAlgorithmE24comRemovalAlgorithmNames, i32 noundef %3)
  %5 = load ptr, ptr %4, align 8, !tbaa !8
  ret ptr %5
}

; Function Attrs: mustprogress uwtable
define void @_Z20reportComRemovalInfoP8_IO_FILERK5t_vcm(ptr noundef %0, ptr noundef nonnull align 8 dereferenceable(257) %1) #0 {
  %3 = alloca ptr, align 8
  %4 = alloca ptr, align 8
  %5 = alloca i32, align 4
  store ptr %0, ptr %3, align 8, !tbaa !318
  store ptr %1, ptr %4, align 8, !tbaa !13
  %6 = load ptr, ptr %3, align 8, !tbaa !318
  %7 = icmp ne ptr %6, null
  br i1 %7, label %8, label %43

8:                                                ; preds = %2
  %9 = load ptr, ptr %4, align 8, !tbaa !13
  %10 = getelementptr inbounds nuw %struct.t_vcm, ptr %9, i32 0, i32 3
  %11 = load i32, ptr %10, align 4, !tbaa !49
  %12 = icmp ne i32 %11, 2
  br i1 %12, label %13, label %43

13:                                               ; preds = %8
  %14 = load ptr, ptr %3, align 8, !tbaa !318
  %15 = load ptr, ptr %4, align 8, !tbaa !13
  %16 = getelementptr inbounds nuw %struct.t_vcm, ptr %15, i32 0, i32 3
  %17 = load i32, ptr %16, align 4, !tbaa !49
  %18 = call noundef ptr @_Z17enumValueToString19ComRemovalAlgorithm(i32 noundef %17)
  %19 = call i32 (ptr, ptr, ...) @fprintf(ptr noundef %14, ptr noundef @.str.10, ptr noundef %18) #16
  %20 = load ptr, ptr %3, align 8, !tbaa !318
  %21 = call i32 (ptr, ptr, ...) @fprintf(ptr noundef %20, ptr noundef @.str.11) #16
  call void @llvm.lifetime.start.p0(i64 4, ptr %5) #16
  store i32 0, ptr %5, align 4, !tbaa !19
  br label %22

22:                                               ; preds = %39, %13
  %23 = load i32, ptr %5, align 4, !tbaa !19
  %24 = load ptr, ptr %4, align 8, !tbaa !13
  %25 = getelementptr inbounds nuw %struct.t_vcm, ptr %24, i32 0, i32 0
  %26 = load i32, ptr %25, align 8, !tbaa !21
  %27 = icmp slt i32 %23, %26
  br i1 %27, label %29, label %28

28:                                               ; preds = %22
  call void @llvm.lifetime.end.p0(i64 4, ptr %5) #16
  br label %42

29:                                               ; preds = %22
  %30 = load ptr, ptr %3, align 8, !tbaa !318
  %31 = load i32, ptr %5, align 4, !tbaa !19
  %32 = load ptr, ptr %4, align 8, !tbaa !13
  %33 = getelementptr inbounds nuw %struct.t_vcm, ptr %32, i32 0, i32 14
  %34 = load i32, ptr %5, align 4, !tbaa !19
  %35 = sext i32 %34 to i64
  %36 = call noundef nonnull align 8 dereferenceable(8) ptr @_ZNKSt6vectorIPcSaIS0_EEixEm(ptr noundef nonnull align 8 dereferenceable(24) %33, i64 noundef %35) #16
  %37 = load ptr, ptr %36, align 8, !tbaa !8
  %38 = call i32 (ptr, ptr, ...) @fprintf(ptr noundef %30, ptr noundef @.str.12, i32 noundef %31, ptr noundef %37) #16
  br label %39

39:                                               ; preds = %29
  %40 = load i32, ptr %5, align 4, !tbaa !19
  %41 = add nsw i32 %40, 1
  store i32 %41, ptr %5, align 4, !tbaa !19
  br label %22, !llvm.loop !320

42:                                               ; preds = %28
  br label %43

43:                                               ; preds = %42, %8, %2
  ret void
}