; Function Attrs: mustprogress nofree nounwind uwtable
define void @_Z20reportComRemovalInfoP8_IO_FILERK5t_vcm(ptr noundef %0, ptr noundef nonnull readonly align 8 captures(none) dereferenceable(257) %1) local_unnamed_addr #14 {
  %.not = icmp eq ptr %0, null
  br i1 %.not, label %.loopexit, label %3

3:                                                ; preds = %2
  %4 = getelementptr inbounds nuw i8, ptr %1, i64 12
  %5 = load i32, ptr %4, align 4, !tbaa !121
  %.not13 = icmp eq i32 %5, 2
  br i1 %.not13, label %.loopexit, label %6

6:                                                ; preds = %3
  %7 = sext i32 %5 to i64
  %8 = getelementptr inbounds nuw [4 x ptr], ptr @_ZZ17enumValueToString19ComRemovalAlgorithmE24comRemovalAlgorithmNames, i64 0, i64 %7
  %9 = load ptr, ptr %8, align 8, !tbaa !4
  %10 = tail call i32 (ptr, ptr, ...) @fprintf(ptr noundef nonnull %0, ptr noundef nonnull @.str.10, ptr noundef %9) #17
  %11 = tail call i64 @fwrite(ptr nonnull @.str.11, i64 64, i64 1, ptr nonnull %0)
  %12 = load i32, ptr %1, align 8, !tbaa !132
  %13 = icmp sgt i32 %12, 0
  br i1 %13, label %.lr.ph, label %.loopexit

.lr.ph:                                           ; preds = %6
  %14 = getelementptr inbounds nuw i8, ptr %1, i64 200
  br label %15

15:                                               ; preds = %.lr.ph, %15
  %indvars.iv = phi i64 [ 0, %.lr.ph ], [ %indvars.iv.next, %15 ]
  %16 = load ptr, ptr %14, align 8, !tbaa !138
  %17 = getelementptr inbounds nuw ptr, ptr %16, i64 %indvars.iv
  %18 = load ptr, ptr %17, align 8, !tbaa !4
  %19 = trunc nuw nsw i64 %indvars.iv to i32
  %20 = tail call i32 (ptr, ptr, ...) @fprintf(ptr noundef nonnull %0, ptr noundef nonnull @.str.12, i32 noundef %19, ptr noundef %18) #17
  %indvars.iv.next = add nuw nsw i64 %indvars.iv, 1
  %21 = load i32, ptr %1, align 8, !tbaa !132
  %22 = sext i32 %21 to i64
  %23 = icmp slt i64 %indvars.iv.next, %22
  br i1 %23, label %15, label %.loopexit, !llvm.loop !183

.loopexit:                                        ; preds = %15, %6, %3, %2
  ret void
}